target datalayout = "e-m:e-p270:32:32-p271:32:32-p272:64:64-i64:64-i128:128-f80:128-n8:16:32:64-S128"
target triple = "x86_64-pc-linux-gnu"

%class.EnumRange = type { i32, i32 }
%class.EnumIterator = type { i32 }
%"class.MetaspaceClosure::MSORef" = type { %"class.MetaspaceClosure::Ref", ptr }
%"class.MetaspaceClosure::Ref" = type { ptr, i32, ptr, ptr }

@_ZN9vmClasses8_klassesE = hidden global [117 x ptr] zeroinitializer, align 16

; Function Attrs: mustprogress nounwind uwtable
define linkonce_odr hidden void @_ZN16MetaspaceClosure3RefC2ENS_11WritabilityE(ptr noundef nonnull align 8 dereferenceable(32) %0, i32 noundef %1) unnamed_addr #1 comdat align 2 {
  %3 = alloca ptr, align 8
  %4 = alloca i32, align 4
  store ptr %0, ptr %3, align 8
  store i32 %1, ptr %4, align 4
  %5 = load ptr, ptr %3, align 8
  store ptr getelementptr inbounds inrange(-16, 72) ({ [11 x ptr] }, ptr @_ZTVN16MetaspaceClosure3RefE, i32 0, i32 0, i32 2), ptr %5, align 8
  %6 = getelementptr inbounds %"class.MetaspaceClosure::Ref", ptr %5, i32 0, i32 1
  %7 = load i32, ptr %4, align 4
  store i32 %7, ptr %6, align 8
  %8 = getelementptr inbounds %"class.MetaspaceClosure::Ref", ptr %5, i32 0, i32 2
  store ptr null, ptr %8, align 8
  %9 = getelementptr inbounds %"class.MetaspaceClosure::Ref", ptr %5, i32 0, i32 3
  store ptr null, ptr %9, align 8
  ret void
}

; Function Attrs: mustprogress nounwind uwtable
define linkonce_odr hidden noundef i32 @_ZN20PrimitiveConversions4castIiiTnNSt9enable_ifIXcvbeqstT_stT0_EiE4typeELi0ETnNS1_IXcvbsr3std11is_integralIS2_EE5valueEiE4typeELi0ETnNS1_IXcvbsr3std11is_integralIS3_EE5valueEiE4typeELi0EEES2_S3_(i32 noundef %0) #1 comdat align 2 {
  %2 = alloca i32, align 4
  store i32 %0, ptr %2, align 4
  %3 = load i32, ptr %2, align 4
  ret i32 %3
}

; Function Attrs: mustprogress nounwind uwtable
define linkonce_odr hidden void @_ZN16MetaspaceClosure6MSORefI13InstanceKlassEC2EPPS1_NS_11WritabilityE(ptr noundef nonnull align 8 dereferenceable(40) %0, ptr noundef %1, i32 noundef %2) unnamed_addr #1 comdat align 2 {
  %4 = alloca ptr, align 8
  %5 = alloca ptr, align 8
  %6 = alloca i32, align 4
  store ptr %0, ptr %4, align 8
  store ptr %1, ptr %5, align 8
  store i32 %2, ptr %6, align 4
  %7 = load ptr, ptr %4, align 8
  %8 = load i32, ptr %6, align 4
  call void @_ZN16MetaspaceClosure3RefC2ENS_11WritabilityE(ptr noundef nonnull align 8 dereferenceable(32) %7, i32 noundef %8)
  store ptr getelementptr inbounds inrange(-16, 72) ({ [11 x ptr] }, ptr @_ZTVN16MetaspaceClosure6MSORefI13InstanceKlassEE, i32 0, i32 0, i32 2), ptr %7, align 8
  %9 = getelementptr inbounds %"class.MetaspaceClosure::MSORef", ptr %7, i32 0, i32 1
  %10 = load ptr, ptr %5, align 8
  store ptr %10, ptr %9, align 8
  ret void
}

; Function Attrs: mustprogress nounwind uwtable
define linkonce_odr hidden noundef i32 @_ZN9vmClasses8check_idE9vmClassID(i32 noundef %0) #1 comdat align 2 {
  %2 = alloca i32, align 4
  store i32 %0, ptr %2, align 4
  %3 = load i32, ptr %2, align 4
  ret i32 %3
}

; Function Attrs: mustprogress nounwind uwtable
define linkonce_odr hidden void @_ZN19EnumIterationTraitsI9vmClassIDE15assert_in_rangeIS0_EEvT_S3_S3_(i32 noundef %0, i32 noundef %1, i32 noundef %2) #1 comdat align 2 {
  %4 = alloca i32, align 4
  %5 = alloca i32, align 4
  %6 = alloca i32, align 4
  store i32 %0, ptr %4, align 4
  store i32 %1, ptr %5, align 4
  store i32 %2, ptr %6, align 4
  ret void
}

; Function Attrs: mustprogress nounwind uwtable
define linkonce_odr hidden noundef i32 @_ZN20PrimitiveConversions4castI9vmClassIDiTnNSt9enable_ifIXcvbcl10check_castIT_T0_EEEiE4typeELi0ETnNS2_IXcvbsr3std7is_enumIS3_EE5valueEiE4typeELi0EEES3_S4_(i32 noundef %0) #1 comdat align 2 {
  %2 = alloca i32, align 4
  store i32 %0, ptr %2, align 4
  %3 = load i32, ptr %2, align 4
  %4 = call noundef i32 @_ZN20PrimitiveConversions4castIiiTnNSt9enable_ifIXcvbeqstT_stT0_EiE4typeELi0ETnNS1_IXcvbsr3std11is_integralIS2_EE5valueEiE4typeELi0ETnNS1_IXcvbsr3std11is_integralIS3_EE5valueEiE4typeELi0EEES2_S3_(i32 noundef %3)
  ret i32 %4
}

; Function Attrs: mustprogress nounwind uwtable
define linkonce_odr hidden noundef i32 @_ZN19EnumIterationTraitsI9vmClassIDE16underlying_valueES0_(i32 noundef %0) #1 comdat align 2 {
  %2 = alloca i32, align 4
  store i32 %0, ptr %2, align 4
  %3 = load i32, ptr %2, align 4
  ret i32 %3
}

; Function Attrs: mustprogress nounwind uwtable
define linkonce_odr hidden void @_ZN9EnumRangeI9vmClassIDEC2ES0_S0_(ptr noundef nonnull align 4 dereferenceable(8) %0, i32 noundef %1, i32 noundef %2) unnamed_addr #1 comdat align 2 {
  %4 = alloca ptr, align 8
  %5 = alloca i32, align 4
  %6 = alloca i32, align 4
  store ptr %0, ptr %4, align 8
  store i32 %1, ptr %5, align 4
  store i32 %2, ptr %6, align 4
  %7 = load ptr, ptr %4, align 8
  %8 = getelementptr inbounds %class.EnumRange, ptr %7, i32 0, i32 0
  %9 = load i32, ptr %5, align 4
  %10 = call noundef i32 @_ZN19EnumIterationTraitsI9vmClassIDE16underlying_valueES0_(i32 noundef %9)
  store i32 %10, ptr %8, align 4
  %11 = getelementptr inbounds %class.EnumRange, ptr %7, i32 0, i32 1
  %12 = load i32, ptr %6, align 4
  %13 = call noundef i32 @_ZN19EnumIterationTraitsI9vmClassIDE16underlying_valueES0_(i32 noundef %12)
  store i32 %13, ptr %11, align 4
  %14 = load i32, ptr %5, align 4
  %15 = call noundef i32 @_ZN20PrimitiveConversions4castI9vmClassIDiTnNSt9enable_ifIXcvbcl10check_castIT_T0_EEEiE4typeELi0ETnNS2_IXcvbsr3std7is_enumIS3_EE5valueEiE4typeELi0EEES3_S4_(i32 noundef 0)
  %16 = call noundef i32 @_ZN20PrimitiveConversions4castI9vmClassIDiTnNSt9enable_ifIXcvbcl10check_castIT_T0_EEEiE4typeELi0ETnNS2_IXcvbsr3std7is_enumIS3_EE5valueEiE4typeELi0EEES3_S4_(i32 noundef 117)
  call void @_ZN19EnumIterationTraitsI9vmClassIDE15assert_in_rangeIS0_EEvT_S3_S3_(i32 noundef %14, i32 noundef %15, i32 noundef %16)
  %17 = load i32, ptr %6, align 4
  %18 = call noundef i32 @_ZN20PrimitiveConversions4castI9vmClassIDiTnNSt9enable_ifIXcvbcl10check_castIT_T0_EEEiE4typeELi0ETnNS2_IXcvbsr3std7is_enumIS3_EE5valueEiE4typeELi0EEES3_S4_(i32 noundef 0)
  %19 = call noundef i32 @_ZN20PrimitiveConversions4castI9vmClassIDiTnNSt9enable_ifIXcvbcl10check_castIT_T0_EEEiE4typeELi0ETnNS2_IXcvbsr3std7is_enumIS3_EE5valueEiE4typeELi0EEES3_S4_(i32 noundef 117)
  call void @_ZN19EnumIterationTraitsI9vmClassIDE15assert_in_rangeIS0_EEvT_S3_S3_(i32 noundef %17, i32 noundef %18, i32 noundef %19)
  ret void
}

; Function Attrs: mustprogress nounwind uwtable
define linkonce_odr hidden void @_ZN16MetaspaceClosure13push_with_refINS_6MSORefI13InstanceKlassEES2_EEvPPT0_NS_11WritabilityE(ptr noundef nonnull align 8 dereferenceable(32) %0, ptr noundef %1, i32 noundef %2) #1 comdat align 2 {
  %4 = alloca i64, align 8
  %5 = alloca i8, align 1
  %6 = alloca i64, align 8
  %7 = alloca ptr, align 8
  %8 = alloca ptr, align 8
  %9 = alloca i32, align 4
  store ptr %0, ptr %7, align 8
  store ptr %1, ptr %8, align 8
  store i32 %2, ptr %9, align 4
  %10 = load ptr, ptr %7, align 8
  store i64 40, ptr %6, align 8
  %11 = load i64, ptr %6, align 8
  store i64 %11, ptr %4, align 8
  store i8 24, ptr %5, align 1
  %12 = load i64, ptr %4, align 8
  %13 = load i8, ptr %5, align 1
  %14 = call noundef ptr @_Z12AllocateHeapm8MEMFLAGSN17AllocFailStrategy13AllocFailEnumE(i64 noundef %12, i8 noundef zeroext %13, i32 noundef 0) #5
  %15 = load ptr, ptr %8, align 8
  %16 = load i32, ptr %9, align 4
  call void @_ZN16MetaspaceClosure6MSORefI13InstanceKlassEC2EPPS1_NS_11WritabilityE(ptr noundef nonnull align 8 dereferenceable(40) %14, ptr noundef %15, i32 noundef %16)
  call void @_ZN16MetaspaceClosure9push_implEPNS_3RefE(ptr noundef nonnull align 8 dereferenceable(32) %10, ptr noundef %14)
  ret void
}

; Function Attrs: mustprogress nounwind uwtable
define linkonce_odr hidden noundef i32 @_ZN9vmClasses6as_intE9vmClassID(i32 noundef %0) #1 comdat align 2 {
  %2 = alloca i32, align 4
  store i32 %0, ptr %2, align 4
  %3 = load i32, ptr %2, align 4
  %4 = call noundef i32 @_ZN9vmClasses8check_idE9vmClassID(i32 noundef %3)
  ret i32 %4
}

; Function Attrs: mustprogress nounwind uwtable
define linkonce_odr hidden void @_ZNK12EnumIteratorI9vmClassIDE16assert_in_boundsEv(ptr noundef nonnull align 4 dereferenceable(4) %0) #1 comdat align 2 {
  %2 = alloca ptr, align 8
  store ptr %0, ptr %2, align 8
  ret void
}

; Function Attrs: mustprogress nounwind uwtable
define linkonce_odr hidden void @_ZN12EnumIteratorI9vmClassIDEC2ES0_(ptr noundef nonnull align 4 dereferenceable(4) %0, i32 noundef %1) unnamed_addr #1 comdat align 2 {
  %3 = alloca ptr, align 8
  %4 = alloca i32, align 4
  store ptr %0, ptr %3, align 8
  store i32 %1, ptr %4, align 4
  %5 = load ptr, ptr %3, align 8
  %6 = getelementptr inbounds %class.EnumIterator, ptr %5, i32 0, i32 0
  %7 = load i32, ptr %4, align 4
  %8 = call noundef i32 @_ZN19EnumIterationTraitsI9vmClassIDE16underlying_valueES0_(i32 noundef %7)
  store i32 %8, ptr %6, align 4
  %9 = load i32, ptr %4, align 4
  %10 = call noundef i32 @_ZN20PrimitiveConversions4castI9vmClassIDiTnNSt9enable_ifIXcvbcl10check_castIT_T0_EEEiE4typeELi0ETnNS2_IXcvbsr3std7is_enumIS3_EE5valueEiE4typeELi0EEES3_S4_(i32 noundef 0)
  %11 = call noundef i32 @_ZN20PrimitiveConversions4castI9vmClassIDiTnNSt9enable_ifIXcvbcl10check_castIT_T0_EEEiE4typeELi0ETnNS2_IXcvbsr3std7is_enumIS3_EE5valueEiE4typeELi0EEES3_S4_(i32 noundef 117)
  call void @_ZN19EnumIterationTraitsI9vmClassIDE15assert_in_rangeIS0_EEvT_S3_S3_(i32 noundef %9, i32 noundef %10, i32 noundef %11)
  ret void
}

; Function Attrs: mustprogress nounwind uwtable
define linkonce_odr hidden void @_ZN9EnumRangeI9vmClassIDEC2ES0_(ptr noundef nonnull align 4 dereferenceable(8) %0, i32 noundef %1) unnamed_addr #1 comdat align 2 {
  %3 = alloca ptr, align 8
  %4 = alloca i32, align 4
  store ptr %0, ptr %3, align 8
  store i32 %1, ptr %4, align 4
  %5 = load ptr, ptr %3, align 8
  %6 = load i32, ptr %4, align 4
  %7 = call noundef i32 @_ZN19EnumIterationTraitsI9vmClassIDE10enumeratorEi(i32 noundef 117)
  call void @_ZN9EnumRangeI9vmClassIDEC2ES0_S0_(ptr noundef nonnull align 4 dereferenceable(8) %5, i32 noundef %6, i32 noundef %7)
  ret void
}

; Function Attrs: mustprogress nounwind uwtable
define linkonce_odr hidden noundef i32 @_ZN19EnumIterationTraitsI9vmClassIDE10enumeratorEi(i32 noundef %0) #1 comdat align 2 {
  %2 = alloca i32, align 4
  store i32 %0, ptr %2, align 4
  %3 = load i32, ptr %2, align 4
  ret i32 %3
}

; Function Attrs: mustprogress nounwind uwtable
define linkonce_odr hidden noundef nonnull align 4 dereferenceable(4) ptr @_ZN12EnumIteratorI9vmClassIDEppEv(ptr noundef nonnull align 4 dereferenceable(4) %0) #1 comdat align 2 {
  %2 = alloca ptr, align 8
  store ptr %0, ptr %2, align 8
  %3 = load ptr, ptr %2, align 8
  call void @_ZNK12EnumIteratorI9vmClassIDE16assert_in_boundsEv(ptr noundef nonnull align 4 dereferenceable(4) %3)
  %4 = getelementptr inbounds %class.EnumIterator, ptr %3, i32 0, i32 0
  %5 = load i32, ptr %4, align 4
  %6 = add nsw i32 %5, 1
  store i32 %6, ptr %4, align 4
  ret ptr %3
}

; Function Attrs: mustprogress nounwind uwtable
define linkonce_odr hidden void @_ZN16MetaspaceClosure4pushI13InstanceKlassEEvPPT_NS_11WritabilityE(ptr noundef nonnull align 8 dereferenceable(32) %0, ptr noundef %1, i32 noundef %2) #1 comdat align 2 {
  %4 = alloca ptr, align 8
  %5 = alloca ptr, align 8
  %6 = alloca i32, align 4
  store ptr %0, ptr %4, align 8
  store ptr %1, ptr %5, align 8
  store i32 %2, ptr %6, align 4
  %7 = load ptr, ptr %4, align 8
  %8 = load ptr, ptr %5, align 8
  %9 = load i32, ptr %6, align 4
  call void @_ZN16MetaspaceClosure13push_with_refINS_6MSORefI13InstanceKlassEES2_EEvPPT0_NS_11WritabilityE(ptr noundef nonnull align 8 dereferenceable(32) %7, ptr noundef %8, i32 noundef %9)
  ret void
}

; Function Attrs: mustprogress nounwind uwtable
define linkonce_odr hidden noundef ptr @_ZN9vmClasses13klass_addr_atE9vmClassID(i32 noundef %0) #1 comdat align 2 {
  %2 = alloca i32, align 4
  store i32 %0, ptr %2, align 4
  %3 = load i32, ptr %2, align 4
  %4 = call noundef i32 @_ZN9vmClasses6as_intE9vmClassID(i32 noundef %3)
  %5 = sext i32 %4 to i64
  %6 = getelementptr inbounds [0 x ptr], ptr @_ZN9vmClasses8_klassesE, i64 0, i64 %5
  ret ptr %6
}

; Function Attrs: mustprogress nounwind uwtable
define linkonce_odr hidden noundef i32 @_ZNK12EnumIteratorI9vmClassIDEdeEv(ptr noundef nonnull align 4 dereferenceable(4) %0) #1 comdat align 2 {
  %2 = alloca ptr, align 8
  store ptr %0, ptr %2, align 8
  %3 = load ptr, ptr %2, align 8
  call void @_ZNK12EnumIteratorI9vmClassIDE16assert_in_boundsEv(ptr noundef nonnull align 4 dereferenceable(4) %3)
  %4 = getelementptr inbounds %class.EnumIterator, ptr %3, i32 0, i32 0
  %5 = load i32, ptr %4, align 4
  %6 = call noundef i32 @_ZN19EnumIterationTraitsI9vmClassIDE10enumeratorEi(i32 noundef %5)
  ret i32 %6
}

; Function Attrs: mustprogress nounwind uwtable
define linkonce_odr hidden noundef zeroext i1 @_ZNK12EnumIteratorI9vmClassIDEneES1_(ptr noundef nonnull align 4 dereferenceable(4) %0, i32 %1) #1 comdat align 2 {
  %3 = alloca %class.EnumIterator, align 4
  %4 = alloca ptr, align 8
  %5 = getelementptr inbounds %class.EnumIterator, ptr %3, i32 0, i32 0
  store i32 %1, ptr %5, align 4
  store ptr %0, ptr %4, align 8
  %6 = load ptr, ptr %4, align 8
  %7 = getelementptr inbounds %class.EnumIterator, ptr %6, i32 0, i32 0
  %8 = load i32, ptr %7, align 4
  %9 = getelementptr inbounds %class.EnumIterator, ptr %3, i32 0, i32 0
  %10 = load i32, ptr %9, align 4
  %11 = icmp ne i32 %8, %10
  ret i1 %11
}

; Function Attrs: mustprogress nounwind uwtable
define linkonce_odr hidden i32 @_ZNK9EnumRangeI9vmClassIDE3endEv(ptr noundef nonnull align 4 dereferenceable(8) %0) #1 comdat align 2 {
  %2 = alloca %class.EnumIterator, align 4
  %3 = alloca ptr, align 8
  store ptr %0, ptr %3, align 8
  %4 = load ptr, ptr %3, align 8
  %5 = getelementptr inbounds %class.EnumRange, ptr %4, i32 0, i32 1
  %6 = load i32, ptr %5, align 4
  %7 = call noundef i32 @_ZN19EnumIterationTraitsI9vmClassIDE10enumeratorEi(i32 noundef %6)
  call void @_ZN12EnumIteratorI9vmClassIDEC2ES0_(ptr noundef nonnull align 4 dereferenceable(4) %2, i32 noundef %7)
  %8 = getelementptr inbounds %class.EnumIterator, ptr %2, i32 0, i32 0
  %9 = load i32, ptr %8, align 4
  ret i32 %9
}

; Function Attrs: mustprogress nounwind uwtable
define linkonce_odr hidden i32 @_ZNK9EnumRangeI9vmClassIDE5beginEv(ptr noundef nonnull align 4 dereferenceable(8) %0) #1 comdat align 2 {
  %2 = alloca %class.EnumIterator, align 4
  %3 = alloca ptr, align 8
  store ptr %0, ptr %3, align 8
  %4 = load ptr, ptr %3, align 8
  %5 = getelementptr inbounds %class.EnumRange, ptr %4, i32 0, i32 0
  %6 = load i32, ptr %5, align 4
  %7 = call noundef i32 @_ZN19EnumIterationTraitsI9vmClassIDE10enumeratorEi(i32 noundef %6)
  call void @_ZN12EnumIteratorI9vmClassIDEC2ES0_(ptr noundef nonnull align 4 dereferenceable(4) %2, i32 noundef %7)
  %8 = getelementptr inbounds %class.EnumIterator, ptr %2, i32 0, i32 0
  %9 = load i32, ptr %8, align 4
  ret i32 %9
}

; Function Attrs: mustprogress nounwind uwtable
define linkonce_odr hidden void @_ZN9EnumRangeI9vmClassIDEC2Ev(ptr noundef nonnull align 4 dereferenceable(8) %0) unnamed_addr #1 comdat align 2 {
  %2 = alloca ptr, align 8
  store ptr %0, ptr %2, align 8
  %3 = load ptr, ptr %2, align 8
  %4 = call noundef i32 @_ZN19EnumIterationTraitsI9vmClassIDE10enumeratorEi(i32 noundef 0)
  call void @_ZN9EnumRangeI9vmClassIDEC2ES0_(ptr noundef nonnull align 4 dereferenceable(8) %3, i32 noundef %4)
  ret void
}

; Function Attrs: mustprogress nounwind uwtable
define hidden void @_ZN9vmClasses21metaspace_pointers_doEP16MetaspaceClosure(ptr noundef %0) #1 align 2 {
  %2 = alloca ptr, align 8
  %3 = alloca ptr, align 8
  %4 = alloca %class.EnumRange, align 4
  %5 = alloca %class.EnumIterator, align 4
  %6 = alloca %class.EnumIterator, align 4
  %7 = alloca %class.EnumIterator, align 4
  %8 = alloca i32, align 4
  store ptr %0, ptr %2, align 8
  call void @_ZN9EnumRangeI9vmClassIDEC2Ev(ptr noundef nonnull align 4 dereferenceable(8) %4)
  store ptr %4, ptr %3, align 8
  %9 = load ptr, ptr %3, align 8
  %10 = call i32 @_ZNK9EnumRangeI9vmClassIDE5beginEv(ptr noundef nonnull align 4 dereferenceable(8) %9)
  %11 = getelementptr inbounds %class.EnumIterator, ptr %5, i32 0, i32 0
  store i32 %10, ptr %11, align 4
  %12 = load ptr, ptr %3, align 8
  %13 = call i32 @_ZNK9EnumRangeI9vmClassIDE3endEv(ptr noundef nonnull align 4 dereferenceable(8) %12)
  %14 = getelementptr inbounds %class.EnumIterator, ptr %6, i32 0, i32 0
  store i32 %13, ptr %14, align 4
  br label %15

15:                                               ; preds = %24, %1
  call void @llvm.memcpy.p0.p0.i64(ptr align 4 %7, ptr align 4 %6, i64 4, i1 false)
  %16 = getelementptr inbounds %class.EnumIterator, ptr %7, i32 0, i32 0
  %17 = load i32, ptr %16, align 4
  %18 = call noundef zeroext i1 @_ZNK12EnumIteratorI9vmClassIDEneES1_(ptr noundef nonnull align 4 dereferenceable(4) %5, i32 %17)
  br i1 %18, label %19, label %26

19:                                               ; preds = %15
  %20 = call noundef i32 @_ZNK12EnumIteratorI9vmClassIDEdeEv(ptr noundef nonnull align 4 dereferenceable(4) %5)
  store i32 %20, ptr %8, align 4
  %21 = load ptr, ptr %2, align 8
  %22 = load i32, ptr %8, align 4
  %23 = call noundef ptr @_ZN9vmClasses13klass_addr_atE9vmClassID(i32 noundef %22)
  call void @_ZN16MetaspaceClosure4pushI13InstanceKlassEEvPPT_NS_11WritabilityE(ptr noundef nonnull align 8 dereferenceable(32) %21, ptr noundef %23, i32 noundef 2)
  br label %24

24:                                               ; preds = %19
  %25 = call noundef nonnull align 4 dereferenceable(4) ptr @_ZN12EnumIteratorI9vmClassIDEppEv(ptr noundef nonnull align 4 dereferenceable(4) %5)
  br label %15

26:                                               ; preds = %15
  ret void
}