; Function Attrs: mustprogress nounwind uwtable
define hidden void @_ZN9vmClasses21metaspace_pointers_doEP16MetaspaceClosure(ptr noundef %0) local_unnamed_addr #0 align 2 {
  br label %2

2:                                                ; preds = %1, %2
  %indvars.iv = phi i64 [ 0, %1 ], [ %indvars.iv.next, %2 ]
  %3 = getelementptr inbounds [0 x ptr], ptr @_ZN9vmClasses8_klassesE, i64 0, i64 %indvars.iv
  %4 = tail call noundef ptr @_Z12AllocateHeapm8MEMFLAGSN17AllocFailStrategy13AllocFailEnumE(i64 noundef 40, i8 noundef zeroext 24, i32 noundef 0) #5
  %5 = getelementptr inbounds i8, ptr %4, i64 8
  store i32 2, ptr %5, align 8
  %6 = getelementptr inbounds i8, ptr %4, i64 16
  tail call void @llvm.memset.p0.i64(ptr noundef nonnull align 8 dereferenceable(16) %6, i8 0, i64 16, i1 false)
  store ptr getelementptr inbounds inrange(-16, 72) (i8, ptr @_ZTVN16MetaspaceClosure6MSORefI13InstanceKlassEE, i64 16), ptr %4, align 8
  %7 = getelementptr inbounds i8, ptr %4, i64 32
  store ptr %3, ptr %7, align 8
  tail call void @_ZN16MetaspaceClosure9push_implEPNS_3RefE(ptr noundef nonnull align 8 dereferenceable(32) %0, ptr noundef nonnull %4) #5
  %indvars.iv.next = add nuw nsw i64 %indvars.iv, 1
  %.not = icmp eq i64 %indvars.iv.next, 117
  br i1 %.not, label %8, label %2

8:                                                ; preds = %2
  ret void
}